; Function Attrs: mustprogress nofree norecurse nosync nounwind willreturn memory(argmem: read) uwtable
define noundef i64 @_Z25wcycle_get_reset_countersP13gmx_wallcycle(ptr noundef readonly %0) local_unnamed_addr #17 {
  %2 = icmp eq ptr %0, null
  br i1 %2, label %6, label %3

3:                                                ; preds = %1
  %4 = getelementptr inbounds i8, ptr %0, i64 1248
  %5 = load i64, ptr %4, align 8
  br label %6

6:                                                ; preds = %1, %3
  %.0 = phi i64 [ %5, %3 ], [ -1, %1 ]
  ret i64 %.0
}